target datalayout = "e-m:e-p270:32:32-p271:32:32-p272:64:64-i64:64-i128:128-f80:128-n8:16:32:64-S128"
target triple = "x86_64-pc-linux-gnu"

%struct._packet_info = type { ptr, ptr, i32, i32, %struct.nstime_t, %struct.nstime_t, %struct.nstime_t, i8, ptr, ptr, ptr, ptr, %struct._address, %struct._address, %struct._address, %struct._address, %struct._address, %struct._address, i32, ptr, i8, [3 x i8], %struct.anon, i32, i32, i32, i32, ptr, i8, ptr, ptr, i16, i16, i32, i32, i16, i32, i32, ptr, ptr, ptr, i8, i8, i16, i16, i16, i32, i16, i16, ptr, ptr, ptr, ptr, ptr, i32, i32 }
%struct.nstime_t = type { i64, i32 }
%struct._address = type { i32, i32, ptr, ptr }
%struct.anon = type { i8, [3 x i8] }

@hf_kafka_broker_epoch = internal global i32 0, align 4
@hf_kafka_controller_id = internal global i32 0, align 4
@hf_kafka_controller_epoch = internal global i32 0, align 4
@hf_kafka_is_kraft_controller = internal global i32 0, align 4
@hf_kafka_topic_inclusion_type = internal global i32 0, align 4
@.str.677 = private unnamed_addr constant [20 x i8] c" (Controller-ID=%d)\00", align 1

; Function Attrs: null_pointer_is_valid sspstrong uwtable
define internal i32 @dissect_kafka_int8(ptr noundef %0, i32 noundef %1, ptr noundef %2, ptr noundef %3, i32 noundef %4, ptr noundef %5) #0 {
  %7 = alloca ptr, align 8
  %8 = alloca i32, align 4
  %9 = alloca ptr, align 8
  %10 = alloca ptr, align 8
  %11 = alloca i32, align 4
  %12 = alloca ptr, align 8
  store ptr %0, ptr %7, align 8
  store i32 %1, ptr %8, align 4
  store ptr %2, ptr %9, align 8
  store ptr %3, ptr %10, align 8
  store i32 %4, ptr %11, align 4
  store ptr %5, ptr %12, align 8
  %13 = load ptr, ptr %12, align 8
  %14 = icmp ne ptr %13, null
  br i1 %14, label %15, label %20

15:                                               ; preds = %6
  %16 = load ptr, ptr %9, align 8
  %17 = load i32, ptr %11, align 4
  %18 = call signext i8 @tvb_get_int8(ptr noundef %16, i32 noundef %17)
  %19 = load ptr, ptr %12, align 8
  store i8 %18, ptr %19, align 1
  br label %20

20:                                               ; preds = %15, %6
  %21 = load ptr, ptr %7, align 8
  %22 = load i32, ptr %8, align 4
  %23 = load ptr, ptr %9, align 8
  %24 = load i32, ptr %11, align 4
  %25 = call ptr @proto_tree_add_item(ptr noundef %21, i32 noundef %22, ptr noundef %23, i32 noundef %24, i32 noundef 1, i32 noundef 0)
  %26 = load i32, ptr %11, align 4
  %27 = add i32 %26, 1
  ret i32 %27
}

; Function Attrs: null_pointer_is_valid sspstrong uwtable
define internal i32 @dissect_kafka_bool(ptr noundef %0, i32 noundef %1, ptr noundef %2, ptr noundef %3, i32 noundef %4) #0 {
  %6 = alloca ptr, align 8
  %7 = alloca i32, align 4
  %8 = alloca ptr, align 8
  %9 = alloca ptr, align 8
  %10 = alloca i32, align 4
  store ptr %0, ptr %6, align 8
  store i32 %1, ptr %7, align 4
  store ptr %2, ptr %8, align 8
  store ptr %3, ptr %9, align 8
  store i32 %4, ptr %10, align 4
  %11 = load ptr, ptr %6, align 8
  %12 = load i32, ptr %7, align 4
  %13 = load ptr, ptr %8, align 8
  %14 = load i32, ptr %10, align 4
  %15 = call ptr @proto_tree_add_item(ptr noundef %11, i32 noundef %12, ptr noundef %13, i32 noundef %14, i32 noundef 1, i32 noundef 0)
  %16 = load i32, ptr %10, align 4
  %17 = add i32 %16, 1
  ret i32 %17
}

; Function Attrs: null_pointer_is_valid sspstrong uwtable
define internal i32 @dissect_kafka_leader_and_isr_request(ptr noundef %0, ptr noundef %1, ptr noundef %2, i32 noundef %3, i16 noundef signext %4) #0 {
  %6 = alloca ptr, align 8
  %7 = alloca ptr, align 8
  %8 = alloca ptr, align 8
  %9 = alloca i32, align 4
  %10 = alloca i16, align 2
  %11 = alloca i32, align 4
  store ptr %0, ptr %6, align 8
  store ptr %1, ptr %7, align 8
  store ptr %2, ptr %8, align 8
  store i32 %3, ptr %9, align 4
  store i16 %4, ptr %10, align 2
  call void @llvm.lifetime.start.p0(i64 4, ptr %11) #12
  %12 = load ptr, ptr %6, align 8
  %13 = load i32, ptr %9, align 4
  %14 = call i32 @tvb_get_ntohl(ptr noundef %12, i32 noundef %13)
  store i32 %14, ptr %11, align 4
  %15 = load ptr, ptr %8, align 8
  %16 = load i32, ptr @hf_kafka_controller_id, align 4
  %17 = load ptr, ptr %6, align 8
  %18 = load i32, ptr %9, align 4
  %19 = call ptr @proto_tree_add_item(ptr noundef %15, i32 noundef %16, ptr noundef %17, i32 noundef %18, i32 noundef 4, i32 noundef 0)
  %20 = load i32, ptr %9, align 4
  %21 = add i32 %20, 4
  store i32 %21, ptr %9, align 4
  %22 = load i16, ptr %10, align 2
  %23 = sext i16 %22 to i32
  %24 = icmp sge i32 %23, 7
  br i1 %24, label %25, label %32

25:                                               ; preds = %5
  %26 = load ptr, ptr %8, align 8
  %27 = load i32, ptr @hf_kafka_is_kraft_controller, align 4
  %28 = load ptr, ptr %6, align 8
  %29 = load ptr, ptr %7, align 8
  %30 = load i32, ptr %9, align 4
  %31 = call i32 @dissect_kafka_bool(ptr noundef %26, i32 noundef %27, ptr noundef %28, ptr noundef %29, i32 noundef %30)
  store i32 %31, ptr %9, align 4
  br label %32

32:                                               ; preds = %25, %5
  %33 = load ptr, ptr %8, align 8
  %34 = load i32, ptr @hf_kafka_controller_epoch, align 4
  %35 = load ptr, ptr %6, align 8
  %36 = load i32, ptr %9, align 4
  %37 = call ptr @proto_tree_add_item(ptr noundef %33, i32 noundef %34, ptr noundef %35, i32 noundef %36, i32 noundef 4, i32 noundef 0)
  %38 = load i32, ptr %9, align 4
  %39 = add i32 %38, 4
  store i32 %39, ptr %9, align 4
  %40 = load i16, ptr %10, align 2
  %41 = sext i16 %40 to i32
  %42 = icmp sge i32 %41, 2
  br i1 %42, label %43, label %51

43:                                               ; preds = %32
  %44 = load ptr, ptr %8, align 8
  %45 = load i32, ptr @hf_kafka_broker_epoch, align 4
  %46 = load ptr, ptr %6, align 8
  %47 = load i32, ptr %9, align 4
  %48 = call ptr @proto_tree_add_item(ptr noundef %44, i32 noundef %45, ptr noundef %46, i32 noundef %47, i32 noundef 8, i32 noundef 0)
  %49 = load i32, ptr %9, align 4
  %50 = add i32 %49, 8
  store i32 %50, ptr %9, align 4
  br label %51

51:                                               ; preds = %43, %32
  %52 = load i16, ptr %10, align 2
  %53 = sext i16 %52 to i32
  %54 = icmp sge i32 %53, 5
  br i1 %54, label %55, label %62

55:                                               ; preds = %51
  %56 = load ptr, ptr %8, align 8
  %57 = load i32, ptr @hf_kafka_topic_inclusion_type, align 4
  %58 = load ptr, ptr %6, align 8
  %59 = load ptr, ptr %7, align 8
  %60 = load i32, ptr %9, align 4
  %61 = call i32 @dissect_kafka_int8(ptr noundef %56, i32 noundef %57, ptr noundef %58, ptr noundef %59, i32 noundef %60, ptr noundef null)
  store i32 %61, ptr %9, align 4
  br label %62

62:                                               ; preds = %55, %51
  %63 = load i16, ptr %10, align 2
  %64 = sext i16 %63 to i32
  %65 = icmp sle i32 %64, 1
  br i1 %65, label %66, label %73

66:                                               ; preds = %62
  %67 = load ptr, ptr %8, align 8
  %68 = load ptr, ptr %6, align 8
  %69 = load ptr, ptr %7, align 8
  %70 = load i32, ptr %9, align 4
  %71 = load i16, ptr %10, align 2
  %72 = call i32 @dissect_kafka_array(ptr noundef %67, ptr noundef %68, ptr noundef %69, i32 noundef %70, i32 noundef 0, i16 noundef signext %71, ptr noundef @dissect_kafka_leader_and_isr_request_partition_state, ptr noundef null)
  store i32 %72, ptr %9, align 4
  br label %84

73:                                               ; preds = %62
  %74 = load ptr, ptr %8, align 8
  %75 = load ptr, ptr %6, align 8
  %76 = load ptr, ptr %7, align 8
  %77 = load i32, ptr %9, align 4
  %78 = load i16, ptr %10, align 2
  %79 = sext i16 %78 to i32
  %80 = icmp sge i32 %79, 4
  %81 = zext i1 %80 to i32
  %82 = load i16, ptr %10, align 2
  %83 = call i32 @dissect_kafka_array(ptr noundef %74, ptr noundef %75, ptr noundef %76, i32 noundef %77, i32 noundef %81, i16 noundef signext %82, ptr noundef @dissect_kafka_leader_and_isr_request_topic_state, ptr noundef null)
  store i32 %83, ptr %9, align 4
  br label %84

84:                                               ; preds = %73, %66
  %85 = load ptr, ptr %8, align 8
  %86 = load ptr, ptr %6, align 8
  %87 = load ptr, ptr %7, align 8
  %88 = load i32, ptr %9, align 4
  %89 = load i16, ptr %10, align 2
  %90 = sext i16 %89 to i32
  %91 = icmp sge i32 %90, 4
  %92 = zext i1 %91 to i32
  %93 = load i16, ptr %10, align 2
  %94 = call i32 @dissect_kafka_array(ptr noundef %85, ptr noundef %86, ptr noundef %87, i32 noundef %88, i32 noundef %92, i16 noundef signext %93, ptr noundef @dissect_kafka_leader_and_isr_request_live_leader, ptr noundef null)
  store i32 %94, ptr %9, align 4
  %95 = load i16, ptr %10, align 2
  %96 = sext i16 %95 to i32
  %97 = icmp sge i32 %96, 4
  br i1 %97, label %98, label %104

98:                                               ; preds = %84
  %99 = load ptr, ptr %6, align 8
  %100 = load ptr, ptr %7, align 8
  %101 = load ptr, ptr %8, align 8
  %102 = load i32, ptr %9, align 4
  %103 = call i32 @dissect_kafka_tagged_fields(ptr noundef %99, ptr noundef %100, ptr noundef %101, i32 noundef %102, i16 noundef signext 0)
  store i32 %103, ptr %9, align 4
  br label %104

104:                                              ; preds = %98, %84
  %105 = load ptr, ptr %7, align 8
  %106 = getelementptr inbounds nuw %struct._packet_info, ptr %105, i32 0, i32 1
  %107 = load ptr, ptr %106, align 8
  %108 = load i32, ptr %11, align 4
  call void (ptr, i32, ptr, ...) @col_append_fstr(ptr noundef %107, i32 noundef 25, ptr noundef @.str.677, i32 noundef %108)
  %109 = load i32, ptr %9, align 4
  call void @llvm.lifetime.end.p0(i64 4, ptr %11) #12
  ret i32 %109
}