; Function Attrs: null_pointer_is_valid sspstrong uwtable
define internal fastcc i32 @dissect_kafka_leader_and_isr_request(ptr noundef %0, ptr noundef %1, ptr noundef %2, i32 noundef %3, i16 noundef signext %4) unnamed_addr #0 {
  %6 = tail call i32 @tvb_get_ntohl(ptr noundef %0, i32 noundef %3)
  %7 = load i32, ptr @hf_kafka_controller_id, align 4
  %8 = tail call ptr @proto_tree_add_item(ptr noundef %2, i32 noundef %7, ptr noundef %0, i32 noundef %3, i32 noundef 4, i32 noundef 0)
  %9 = add i32 %3, 4
  %10 = icmp sgt i16 %4, 6
  br i1 %10, label %11, label %15

11:                                               ; preds = %5
  %12 = load i32, ptr @hf_kafka_is_kraft_controller, align 4
  %13 = tail call ptr @proto_tree_add_item(ptr noundef %2, i32 noundef %12, ptr noundef %0, i32 noundef %9, i32 noundef 1, i32 noundef 0)
  %14 = add i32 %3, 5
  br label %15

15:                                               ; preds = %11, %5
  %.0 = phi i32 [ %14, %11 ], [ %9, %5 ]
  %16 = load i32, ptr @hf_kafka_controller_epoch, align 4
  %17 = tail call ptr @proto_tree_add_item(ptr noundef %2, i32 noundef %16, ptr noundef %0, i32 noundef %.0, i32 noundef 4, i32 noundef 0)
  %18 = add i32 %.0, 4
  %19 = icmp sgt i16 %4, 1
  br i1 %19, label %20, label %.thread55

20:                                               ; preds = %15
  %21 = load i32, ptr @hf_kafka_broker_epoch, align 4
  %22 = tail call ptr @proto_tree_add_item(ptr noundef %2, i32 noundef %21, ptr noundef %0, i32 noundef %18, i32 noundef 8, i32 noundef 0)
  %23 = add i32 %.0, 12
  %24 = icmp samesign ugt i16 %4, 4
  br i1 %24, label %25, label %31

25:                                               ; preds = %20
  %26 = load i32, ptr @hf_kafka_topic_inclusion_type, align 4
  %27 = tail call ptr @proto_tree_add_item(ptr noundef %2, i32 noundef %26, ptr noundef %0, i32 noundef %23, i32 noundef 1, i32 noundef 0)
  %28 = add i32 %.0, 13
  br label %31

.thread55:                                        ; preds = %15
  %29 = tail call fastcc i32 @dissect_kafka_array(ptr noundef %2, ptr noundef %0, ptr noundef %1, i32 noundef %18, i32 noundef 0, i16 noundef signext %4, ptr noundef nonnull @dissect_kafka_leader_and_isr_request_partition_state, ptr noundef null)
  %30 = tail call fastcc i32 @dissect_kafka_array(ptr noundef %2, ptr noundef %0, ptr noundef %1, i32 noundef %29, i32 noundef 0, i16 noundef signext %4, ptr noundef nonnull @dissect_kafka_leader_and_isr_request_live_leader, ptr noundef null)
  br label %38

31:                                               ; preds = %20, %25
  %.2.ph = phi i32 [ %23, %20 ], [ %28, %25 ]
  %32 = icmp samesign ugt i16 %4, 3
  %33 = zext i1 %32 to i32
  %34 = tail call fastcc i32 @dissect_kafka_array(ptr noundef %2, ptr noundef %0, ptr noundef %1, i32 noundef %.2.ph, i32 noundef %33, i16 noundef signext %4, ptr noundef nonnull @dissect_kafka_leader_and_isr_request_topic_state, ptr noundef null)
  %35 = tail call fastcc i32 @dissect_kafka_array(ptr noundef %2, ptr noundef %0, ptr noundef %1, i32 noundef %34, i32 noundef %33, i16 noundef signext %4, ptr noundef nonnull @dissect_kafka_leader_and_isr_request_live_leader, ptr noundef null)
  br i1 %32, label %36, label %38

36:                                               ; preds = %31
  %37 = tail call fastcc i32 @dissect_kafka_tagged_fields(ptr noundef %0, ptr noundef %1, ptr noundef %2, i32 noundef %35)
  br label %38

38:                                               ; preds = %.thread55, %36, %31
  %.4 = phi i32 [ %37, %36 ], [ %35, %31 ], [ %30, %.thread55 ]
  %39 = getelementptr inbounds nuw i8, ptr %1, i64 8
  %40 = load ptr, ptr %39, align 8
  tail call void (ptr, i32, ptr, ...) @col_append_fstr(ptr noundef %40, i32 noundef 25, ptr noundef nonnull @.str.677, i32 noundef %6)
  ret i32 %.4
}